; Function Attrs: mustprogress nofree nounwind willreturn memory(read, inaccessiblemem: none) uwtable
define noundef zeroext i1 @_ZNK4GURLltERKS_(ptr noundef nonnull readonly align 8 captures(none) dereferenceable(120) %0, ptr noundef nonnull readonly align 8 captures(none) dereferenceable(120) %1) local_unnamed_addr #8 align 2 personality ptr @__gxx_personality_v0 {
  %3 = getelementptr inbounds nuw i8, ptr %0, i64 8
  %4 = load i64, ptr %3, align 8, !tbaa !9
  %5 = getelementptr inbounds nuw i8, ptr %1, i64 8
  %6 = load i64, ptr %5, align 8, !tbaa !9
  %.sroa.speculated.i.i = tail call i64 @llvm.umin.i64(i64 %6, i64 %4)
  %7 = icmp eq i64 %.sroa.speculated.i.i, 0
  br i1 %7, label %_ZNSt11char_traitsIcE7compareEPKcS2_m.exit.thread.i.i, label %_ZNSt11char_traitsIcE7compareEPKcS2_m.exit.i.i

_ZNSt11char_traitsIcE7compareEPKcS2_m.exit.i.i:   ; preds = %2
  %8 = load ptr, ptr %1, align 8, !tbaa !28
  %9 = load ptr, ptr %0, align 8, !tbaa !28
  %10 = tail call i32 @memcmp(ptr noundef %9, ptr noundef %8, i64 noundef %.sroa.speculated.i.i) #17
  %.not.i.i = icmp eq i32 %10, 0
  br i1 %.not.i.i, label %_ZNSt11char_traitsIcE7compareEPKcS2_m.exit.thread.i.i, label %_ZStltIcSt11char_traitsIcESaIcEEbRKNSt7__cxx1112basic_stringIT_T0_T1_EESA_.exit

_ZNSt11char_traitsIcE7compareEPKcS2_m.exit.thread.i.i: ; preds = %_ZNSt11char_traitsIcE7compareEPKcS2_m.exit.i.i, %2
  %11 = sub i64 %4, %6
  %spec.select7.i.i.i = tail call i64 @llvm.smax.i64(i64 %11, i64 -2147483648)
  %.08.i.i.i = tail call i64 @llvm.smin.i64(i64 %spec.select7.i.i.i, i64 2147483647)
  %.0.i6.i.i = trunc nsw i64 %.08.i.i.i to i32
  br label %_ZStltIcSt11char_traitsIcESaIcEEbRKNSt7__cxx1112basic_stringIT_T0_T1_EESA_.exit

_ZStltIcSt11char_traitsIcESaIcEEbRKNSt7__cxx1112basic_stringIT_T0_T1_EESA_.exit: ; preds = %_ZNSt11char_traitsIcE7compareEPKcS2_m.exit.i.i, %_ZNSt11char_traitsIcE7compareEPKcS2_m.exit.thread.i.i
  %.0.i.i = phi i32 [ %10, %_ZNSt11char_traitsIcE7compareEPKcS2_m.exit.i.i ], [ %.0.i6.i.i, %_ZNSt11char_traitsIcE7compareEPKcS2_m.exit.thread.i.i ]
  %12 = icmp slt i32 %.0.i.i, 0
  ret i1 %12
}